(lp0
(lp1
S'danny.jackowitz'
p2
aS'joan.feigenbaum'
p3
aS'avi.silberschatz.7'
p4
aS'vladimir.rokhlin'
p5
aa(lp6
(iCrypto.PublicKey.RSA
_RSAobj
p7
(dp9
S'e'
p10
L65537L
sS'n'
p11
L143607655615157072505628663912105201961790093516205753237102002589100453635310410219013480084716114471485578674429754872838221566797865254209833211803456807236349613678557107845566021948370134828566480511451266794513814748132682493997628069543393336881353371199867922742220014671375449421091635784529316493059L
sba(iCrypto.PublicKey.RSA
_RSAobj
p12
(dp13
g10
L65537L
sg11
L124905162162813165438633296107442586810577399293946928301940576894234247083687278992902901268723774467886591014263830131152296261939826892727837421694167713726407775761930487944285721478472706400841324078087135182916099374974121954857400227698802849048289566906592614929809771882857019193899084666297558949021L
sba(iCrypto.PublicKey.RSA
_RSAobj
p14
(dp15
g10
L65537L
sg11
L150578860136552645046757549555753820280231472765907087321622665960907491239779114290934537972227950698462304532556162650380802847051990591413163713560955300973221433891650257928437546128005412633781516727608735010048307260656203305436422429146897778046710953817721364363365819282355540794111695651449282622527L
sba(iCrypto.PublicKey.RSA
_RSAobj
p16
(dp17
g10
L65537L
sg11
L138562420004033716264329217216774575154280726453019203812793640888095463190883194024628328038874375617150018821895874211832450979932868075380662792315487207075398323291830201092631109423147884669505921139055343484870864897723656125414529330610938833910098094401256174421652561979618698078457222779172630978379L
sbaa(lp18
L720188820227800858192460049915451011420681398442L
aL129283644670934936528598639678074502594515309695278426614755813340437714498857646921051416086330317000980769929170689642302557769165092716568644082573105798102490580898299562298506482885710414048888536462470356362812449431613945725109186646356206338883299013006120451037551069213268840387269228094098559810017L
aL2918526265406727191311023545178476725743015330787627902647602988165477674711817596908202543344170654667144274741889293509119913058527717407001499876217217970458070269297141248294823502405610148586743917417841016689030684845139073883494171732589430772005130764512479481511560454159127302666122147651204645160L
aL51808361410823119986125960689705526623774833757364880483069611742804968755289987159208132958361442941213791976472344222608098738854339900736316167815843440979982705712598705123837055298797759973440655288901071830622283023907624445915030561619137334501566011622082493859113292389748892172059955515013608963128L
aL87763278507385470021636972215444082327739827291563077559053504791930871740134797954772531954500601087998612867688898363396875153648349596857767498104531236066685113755620558961004393911772530078405286548682137807840286187076041382561035564633405256128761490170365611060957983728418173134579185090968931291398L
aa.