(lp0
(lp1
S'avi.silberschatz.7'
p2
aS'han.ma.39589'
p3
aS'joan.feigenbaum'
p4
aS'vladimir.rokhlin'
p5
aa(lp6
L44862837666953941187514589863377492480724478026965256129273469387329390375594613805246359730997336902767586491356038530350408861414702907773720178968230001057364139917399713413772924190583175442155100129160413008237237629242994503265264809419857381492167569180529551842912307937732453886711147428489040565023L
aL82724496915734790076200907169702429687698354635214897193817458972482143568762147361905911929975957168674225512162779831040819647951902603420175644591569527758397119714272433972662634765549942140408203101980339378111128425709809995449106722106060183736465654894845268477969376639610012949261146359349920090831L
aL51078628727247270082891032355533067900711185146914218421434880176889400344996793951249534269585503444284104869968967230734535709759408492460914923239951421413725899637554040683204238044608654361378943557270336641726012391639516802766468901250832875984309517295182021037892710393457118295968847186245478717530L
aL18519135633155996168441851371399484635834309662940126234080330680658988026133155133282422698471815745359421224440630954883840328071459150957031824553560312162549189721859254679622142988431718183990614950884804094656672379192036375091227036376430401018357140965161038707028367279073098444187792752853042615656L
aa(lp7
L617557231517103937779950183490399706974604497524L
a(lp8
L872443046695284215522149170533403250987616884363L
aL355826361514695204554763961299134948696238753454L
aL349510521808780736513747035654098180364803038706L
aL426968940386412025036222316892359052474842079324L
aaL82724496915734790076200907169702429687698354635214897193817458972482143568762147361905911929975957168674225512162779831040819647951902603420175644591569527758397119714272433972662634765549942140408203101980339378111128425709809995449106722106060183736465654894845268477969376639610012949261146359349920090831L
aa.